target datalayout = "e-m:e-p270:32:32-p271:32:32-p272:64:64-i64:64-i128:128-f80:128-n8:16:32:64-S128"
target triple = "x86_64-pc-linux-gnu"

%struct._value_string_ext = type { ptr, i32, i32, ptr, ptr }
%struct._packet_info = type { ptr, ptr, i32, i32, %struct.nstime_t, %struct.nstime_t, %struct.nstime_t, i8, ptr, ptr, ptr, ptr, %struct._address, %struct._address, %struct._address, %struct._address, %struct._address, %struct._address, i32, ptr, i8, [3 x i8], %struct.anon, i32, i32, i32, i32, ptr, i8, ptr, ptr, i16, i16, i32, i32, i16, i32, i32, ptr, ptr, ptr, i8, i8, i16, i16, i16, i32, i16, i16, ptr, ptr, ptr, ptr, ptr, i32, i32 }
%struct.nstime_t = type { i64, i32 }
%struct._address = type { i32, i32, ptr, ptr }
%struct.anon = type { i8, [3 x i8] }

@docsis_conf_code_ext = external global %struct._value_string_ext, align 8
@hf_docsis_dsdrsp_confcode = internal global i32 0, align 4
@hf_docsis_dsdrsp_rsvd = internal global i32 0, align 4
@hf_docsis_mgt_tranid = internal global i32 0, align 4
@ett_docsis_dsdrsp = internal global i32 0, align 4
@proto_docsis_dsdrsp = internal global i32 0, align 4
@.str.2033 = private unnamed_addr constant [3 x i8] c"%d\00", align 1
@.str.2184 = private unnamed_addr constant [58 x i8] c"Dynamic Service Delete Response: Transaction ID = %u (%s)\00", align 1

; Function Attrs: null_pointer_is_valid sspstrong uwtable
define internal i32 @dissect_dsdrsp(ptr noundef %0, ptr noundef %1, ptr noundef %2, ptr noundef %3) #0 {
  %5 = alloca ptr, align 8
  %6 = alloca ptr, align 8
  %7 = alloca ptr, align 8
  %8 = alloca ptr, align 8
  %9 = alloca ptr, align 8
  %10 = alloca ptr, align 8
  %11 = alloca i32, align 4
  %12 = alloca i32, align 4
  store ptr %0, ptr %5, align 8
  store ptr %1, ptr %6, align 8
  store ptr %2, ptr %7, align 8
  store ptr %3, ptr %8, align 8
  call void @llvm.lifetime.start.p0(i64 8, ptr %9) #6
  call void @llvm.lifetime.start.p0(i64 8, ptr %10) #6
  call void @llvm.lifetime.start.p0(i64 4, ptr %11) #6
  call void @llvm.lifetime.start.p0(i64 4, ptr %12) #6
  %13 = load ptr, ptr %7, align 8
  %14 = load i32, ptr @proto_docsis_dsdrsp, align 4
  %15 = load ptr, ptr %5, align 8
  %16 = call ptr @proto_tree_add_item(ptr noundef %13, i32 noundef %14, ptr noundef %15, i32 noundef 0, i32 noundef -1, i32 noundef 0)
  store ptr %16, ptr %9, align 8
  %17 = load ptr, ptr %9, align 8
  %18 = load i32, ptr @ett_docsis_dsdrsp, align 4
  %19 = call ptr @proto_item_add_subtree(ptr noundef %17, i32 noundef %18)
  store ptr %19, ptr %10, align 8
  %20 = load ptr, ptr %10, align 8
  %21 = load i32, ptr @hf_docsis_mgt_tranid, align 4
  %22 = load ptr, ptr %5, align 8
  %23 = call ptr @proto_tree_add_item_ret_uint(ptr noundef %20, i32 noundef %21, ptr noundef %22, i32 noundef 0, i32 noundef 2, i32 noundef 0, ptr noundef %11)
  %24 = load ptr, ptr %10, align 8
  %25 = load i32, ptr @hf_docsis_dsdrsp_confcode, align 4
  %26 = load ptr, ptr %5, align 8
  %27 = call ptr @proto_tree_add_item_ret_uint(ptr noundef %24, i32 noundef %25, ptr noundef %26, i32 noundef 2, i32 noundef 1, i32 noundef 0, ptr noundef %12)
  %28 = load ptr, ptr %10, align 8
  %29 = load i32, ptr @hf_docsis_dsdrsp_rsvd, align 4
  %30 = load ptr, ptr %5, align 8
  %31 = call ptr @proto_tree_add_item(ptr noundef %28, i32 noundef %29, ptr noundef %30, i32 noundef 3, i32 noundef 1, i32 noundef 0)
  %32 = load ptr, ptr %6, align 8
  %33 = getelementptr inbounds nuw %struct._packet_info, ptr %32, i32 0, i32 1
  %34 = load ptr, ptr %33, align 8
  %35 = load i32, ptr %11, align 4
  %36 = load i32, ptr %12, align 4
  %37 = call ptr @val_to_str_ext(i32 noundef %36, ptr noundef @docsis_conf_code_ext, ptr noundef @.str.2033)
  call void (ptr, i32, ptr, ...) @col_add_fstr(ptr noundef %34, i32 noundef 25, ptr noundef @.str.2184, i32 noundef %35, ptr noundef %37)
  %38 = load ptr, ptr %5, align 8
  %39 = call i32 @tvb_captured_length(ptr noundef %38)
  call void @llvm.lifetime.end.p0(i64 4, ptr %12) #6
  call void @llvm.lifetime.end.p0(i64 4, ptr %11) #6
  call void @llvm.lifetime.end.p0(i64 8, ptr %10) #6
  call void @llvm.lifetime.end.p0(i64 8, ptr %9) #6
  ret i32 %39
}